target datalayout = "e-m:e-p270:32:32-p271:32:32-p272:64:64-i64:64-i128:128-f80:128-n8:16:32:64-S128"
target triple = "x86_64-pc-linux-gnu"

; Function Attrs: nounwind uwtable
define i32 @cli_bcapi_hex2ui(ptr noundef %0, i32 noundef %1, i32 noundef %2) #0 {
  %4 = alloca i32, align 4
  %5 = alloca ptr, align 8
  %6 = alloca i32, align 4
  %7 = alloca i32, align 4
  %8 = alloca i8, align 1
  %9 = alloca [2 x i8], align 1
  store ptr %0, ptr %5, align 8
  store i32 %1, ptr %6, align 4
  store i32 %2, ptr %7, align 4
  store i8 0, ptr %8, align 1
  %10 = load i32, ptr %6, align 4
  %11 = trunc i32 %10 to i8
  %12 = getelementptr inbounds [2 x i8], ptr %9, i64 0, i64 0
  store i8 %11, ptr %12, align 1
  %13 = load i32, ptr %7, align 4
  %14 = trunc i32 %13 to i8
  %15 = getelementptr inbounds [2 x i8], ptr %9, i64 0, i64 1
  store i8 %14, ptr %15, align 1
  %16 = getelementptr inbounds [2 x i8], ptr %9, i64 0, i64 0
  %17 = call i32 @cli_hex2str_to(ptr noundef %16, ptr noundef %8, i64 noundef 2)
  %18 = icmp eq i32 %17, -1
  br i1 %18, label %19, label %20

19:                                               ; preds = %3
  store i32 -1, ptr %4, align 4
  br label %23

20:                                               ; preds = %3
  %21 = load i8, ptr %8, align 1
  %22 = sext i8 %21 to i32
  store i32 %22, ptr %4, align 4
  br label %23

23:                                               ; preds = %20, %19
  %24 = load i32, ptr %4, align 4
  ret i32 %24
}