; Function Attrs: nounwind uwtable
define i32 @cli_bcapi_hex2ui(ptr nocapture noundef readnone %0, i32 noundef %1, i32 noundef %2) local_unnamed_addr #1 {
  %4 = alloca i8, align 1
  %5 = alloca [2 x i8], align 1
  store i8 0, ptr %4, align 1
  %6 = trunc i32 %1 to i8
  store i8 %6, ptr %5, align 1
  %7 = trunc i32 %2 to i8
  %8 = getelementptr inbounds i8, ptr %5, i64 1
  store i8 %7, ptr %8, align 1
  %9 = call i32 @cli_hex2str_to(ptr noundef nonnull %5, ptr noundef nonnull %4, i64 noundef 2) #29
  %10 = icmp eq i32 %9, -1
  %11 = load i8, ptr %4, align 1
  %12 = sext i8 %11 to i32
  %.0 = select i1 %10, i32 -1, i32 %12
  ret i32 %.0
}